target datalayout = "e-m:e-p270:32:32-p271:32:32-p272:64:64-i64:64-i128:128-f80:128-n8:16:32:64-S128"
target triple = "x86_64-pc-linux-gnu"

%class.XPageAllocator = type <{ %class.XLock, %class.XPageCache, %class.XVirtualMemoryManager, %class.XPhysicalMemoryManager, i64, i64, i64, i64, i64, i64, i64, i64, i64, %class.XList.4, i64, %class.XList.4, ptr, ptr, %class.XSafeDelete, i8, [7 x i8] }>
%class.XLock = type { %class.PlatformMutex }
%class.PlatformMutex = type { %union.pthread_mutex_t }
%union.pthread_mutex_t = type { %struct.__pthread_mutex_s }
%struct.__pthread_mutex_s = type { i32, i32, i32, i32, i32, i16, i16, %struct.__pthread_internal_list }
%struct.__pthread_internal_list = type { ptr, ptr }
%class.XPageCache = type { %class.XValue, %class.XList, %class.XList, i64 }
%class.XValue = type { i64 }
%class.XList = type { %class.XListNode, i64 }
%class.XListNode = type { ptr, ptr }
%class.XVirtualMemoryManager = type <{ %class.XMemoryManager, i64, i8, [7 x i8] }>
%class.XMemoryManager = type { %class.XLock, %class.XList.2, %"struct.XMemoryManager::Callbacks" }
%class.XList.2 = type { %class.XListNode.3, i64 }
%class.XListNode.3 = type { ptr, ptr }
%"struct.XMemoryManager::Callbacks" = type { ptr, ptr, ptr, ptr, ptr, ptr }
%class.XPhysicalMemoryManager = type { %class.XPhysicalMemoryBacking, %class.XMemoryManager }
%class.XPhysicalMemoryBacking = type <{ i32, [4 x i8], i64, i64, i64, i64, i8, [7 x i8] }>
%class.XList.4 = type { %class.XListNode.5, i64 }
%class.XListNode.5 = type { ptr, ptr }
%class.XSafeDelete = type { %class.XSafeDeleteImpl, %class.XLock }
%class.XSafeDeleteImpl = type { ptr, i64, %class.GrowableArrayCHeap }
%class.GrowableArrayCHeap = type { %class.GrowableArrayWithAllocator }
%class.GrowableArrayWithAllocator = type { %class.GrowableArrayView }
%class.GrowableArrayView = type { %class.GrowableArrayBase, ptr }
%class.GrowableArrayBase = type { i32, i32 }

; Function Attrs: mustprogress nounwind uwtable
define hidden void @_ZN14XPageAllocator16reset_statisticsEv(ptr noundef nonnull align 8 dereferenceable(609) %0) #1 align 2 {
  %2 = alloca ptr, align 8
  store ptr %0, ptr %2, align 8
  %3 = load ptr, ptr %2, align 8
  %4 = getelementptr inbounds %class.XPageAllocator, ptr %3, i32 0, i32 12
  store i64 0, ptr %4, align 8
  %5 = getelementptr inbounds %class.XPageAllocator, ptr %3, i32 0, i32 9
  %6 = load volatile i64, ptr %5, align 8
  %7 = getelementptr inbounds %class.XPageAllocator, ptr %3, i32 0, i32 11
  store i64 %6, ptr %7, align 8
  %8 = getelementptr inbounds %class.XPageAllocator, ptr %3, i32 0, i32 10
  store i64 %6, ptr %8, align 8
  %9 = getelementptr inbounds %class.XPageAllocator, ptr %3, i32 0, i32 14
  store volatile i64 0, ptr %9, align 8
  ret void
}