; Function Attrs: mustprogress nofree norecurse nounwind memory(argmem: readwrite, inaccessiblemem: readwrite) uwtable
define hidden void @_ZN14XPageAllocator16reset_statisticsEv(ptr noundef nonnull align 8 dereferenceable(609) %0) local_unnamed_addr #6 align 2 {
  %2 = getelementptr inbounds i8, ptr %0, i64 456
  store i64 0, ptr %2, align 8
  %3 = getelementptr inbounds i8, ptr %0, i64 432
  %4 = load volatile i64, ptr %3, align 8
  %5 = getelementptr inbounds i8, ptr %0, i64 448
  store i64 %4, ptr %5, align 8
  %6 = getelementptr inbounds i8, ptr %0, i64 440
  store i64 %4, ptr %6, align 8
  %7 = getelementptr inbounds i8, ptr %0, i64 488
  store volatile i64 0, ptr %7, align 8
  ret void
}